target datalayout = "e-m:e-p270:32:32-p271:32:32-p272:64:64-i64:64-i128:128-f80:128-n8:16:32:64-S128"
target triple = "x86_64-pc-linux-gnu"

%"class.google::protobuf::internal::InternalMetadata" = type { i64 }
%"struct.google::protobuf::internal::ArenaStringPtr" = type { %"class.google::protobuf::internal::TaggedPtr" }
%"class.google::protobuf::internal::TaggedPtr" = type { ptr }
%"class.google::protobuf::Message" = type { %"class.google::protobuf::MessageLite" }
%"class.google::protobuf::MessageLite" = type { ptr, %"class.google::protobuf::internal::InternalMetadata" }
%"class.google::protobuf::internal::CachedSize" = type { %"struct.std::atomic" }
%"struct.std::atomic" = type { %"struct.std::__atomic_base" }
%"struct.std::__atomic_base" = type { i32 }
%"class.std::__cxx11::basic_string" = type { %"struct.std::__cxx11::basic_string<char>::_Alloc_hider", i64, %union.anon.6 }
%"struct.std::__cxx11::basic_string<char>::_Alloc_hider" = type { ptr }
%union.anon.6 = type { i64, [8 x i8] }
%"class.opencv_tensorflow::OpDef_AttrDef" = type { %"class.google::protobuf::Message", %"struct.google::protobuf::internal::ArenaStringPtr", %"struct.google::protobuf::internal::ArenaStringPtr", %"struct.google::protobuf::internal::ArenaStringPtr", ptr, ptr, i64, i8, %"class.google::protobuf::internal::CachedSize" }

; Function Attrs: mustprogress nounwind uwtable
define linkonce_odr hidden noundef i32 @_ZN6google8protobuf4Bits16Log2FloorNonZeroEj(i32 noundef %0) #7 comdat align 2 {
  %2 = alloca i32, align 4
  store i32 %0, ptr %2, align 4, !tbaa !31
  %3 = load i32, ptr %2, align 4, !tbaa !31
  %4 = call i32 @llvm.ctlz.i32(i32 %3, i1 true)
  %5 = xor i32 31, %4
  ret i32 %5
}

; Function Attrs: mustprogress nounwind uwtable
define linkonce_odr hidden noundef i64 @_ZNK6google8protobuf8internal9TaggedPtrINSt7__cxx1112basic_stringIcSt11char_traitsIcESaIcEEEE6as_intEv(ptr noundef nonnull align 8 dereferenceable(8) %0) #7 comdat align 2 {
  %2 = alloca ptr, align 8
  store ptr %0, ptr %2, align 8, !tbaa !156
  %3 = load ptr, ptr %2, align 8
  %4 = getelementptr inbounds nuw %"class.google::protobuf::internal::TaggedPtr", ptr %3, i32 0, i32 0
  %5 = load ptr, ptr %4, align 8, !tbaa !158
  %6 = ptrtoint ptr %5 to i64
  ret i64 %6
}

; Function Attrs: mustprogress nounwind uwtable
define linkonce_odr hidden noundef i32 @_ZN6google8protobuf4Bits18Log2FloorNonZero64Em(i64 noundef %0) #7 comdat align 2 {
  %2 = alloca i64, align 8
  store i64 %0, ptr %2, align 8, !tbaa !38
  %3 = load i64, ptr %2, align 8, !tbaa !38
  %4 = call i64 @llvm.ctlz.i64(i64 %3, i1 true)
  %5 = trunc i64 %4 to i32
  %6 = xor i32 63, %5
  ret i32 %6
}

; Function Attrs: inlinehint mustprogress uwtable
define linkonce_odr hidden noundef i64 @_ZN6google8protobuf2io17CodedOutputStream12VarintSize32Ej(i32 noundef %0) #5 comdat align 2 {
  %2 = alloca i32, align 4
  %3 = alloca i32, align 4
  store i32 %0, ptr %2, align 4, !tbaa !31
  call void @llvm.lifetime.start.p0(i64 4, ptr %3) #3
  %4 = load i32, ptr %2, align 4, !tbaa !31
  %5 = or i32 %4, 1
  %6 = call noundef i32 @_ZN6google8protobuf4Bits16Log2FloorNonZeroEj(i32 noundef %5)
  store i32 %6, ptr %3, align 4, !tbaa !31
  %7 = load i32, ptr %3, align 4, !tbaa !31
  %8 = mul i32 %7, 9
  %9 = add i32 %8, 73
  %10 = udiv i32 %9, 64
  %11 = zext i32 %10 to i64
  call void @llvm.lifetime.end.p0(i64 4, ptr %3) #3
  ret i64 %11
}

; Function Attrs: mustprogress uwtable
define linkonce_odr hidden noundef ptr @_ZNK6google8protobuf8internal9TaggedPtrINSt7__cxx1112basic_stringIcSt11char_traitsIcESaIcEEEE3GetEv(ptr noundef nonnull align 8 dereferenceable(8) %0) #4 comdat align 2 {
  %2 = alloca ptr, align 8
  store ptr %0, ptr %2, align 8, !tbaa !156
  %3 = load ptr, ptr %2, align 8
  %4 = call noundef i64 @_ZNK6google8protobuf8internal9TaggedPtrINSt7__cxx1112basic_stringIcSt11char_traitsIcESaIcEEEE6as_intEv(ptr noundef nonnull align 8 dereferenceable(8) %3)
  %5 = and i64 %4, -2
  %6 = inttoptr i64 %5 to ptr
  ret ptr %6
}

; Function Attrs: inlinehint mustprogress nounwind uwtable
define linkonce_odr hidden noundef i64 @_ZN6google8protobuf2io17CodedOutputStream19VarintSize64PlusOneEm(i64 noundef %0) #6 comdat align 2 {
  %2 = alloca i64, align 8
  %3 = alloca i32, align 4
  store i64 %0, ptr %2, align 8, !tbaa !38
  call void @llvm.lifetime.start.p0(i64 4, ptr %3) #3
  %4 = load i64, ptr %2, align 8, !tbaa !38
  %5 = or i64 %4, 1
  %6 = call noundef i32 @_ZN6google8protobuf4Bits18Log2FloorNonZero64Em(i64 noundef %5)
  store i32 %6, ptr %3, align 4, !tbaa !31
  %7 = load i32, ptr %3, align 4, !tbaa !31
  %8 = mul i32 %7, 9
  %9 = add i32 %8, 73
  %10 = add i32 %9, 64
  %11 = udiv i32 %10, 64
  %12 = zext i32 %11 to i64
  call void @llvm.lifetime.end.p0(i64 4, ptr %3) #3
  ret i64 %12
}

; Function Attrs: inlinehint mustprogress nounwind uwtable
define linkonce_odr hidden noundef ptr @_ZN17opencv_tensorflow13OpDef_AttrDef25internal_default_instanceEv() #6 comdat align 2 {
  ret ptr @_ZN17opencv_tensorflow32_OpDef_AttrDef_default_instance_E
}

; Function Attrs: inlinehint mustprogress uwtable
define linkonce_odr hidden noundef i64 @_ZN6google8protobuf8internal14WireFormatLite19LengthDelimitedSizeEm(i64 noundef %0) #5 comdat align 2 {
  %2 = alloca i64, align 8
  store i64 %0, ptr %2, align 8, !tbaa !38
  %3 = load i64, ptr %2, align 8, !tbaa !38
  %4 = load i64, ptr %2, align 8, !tbaa !38
  %5 = trunc i64 %4 to i32
  %6 = call noundef i64 @_ZN6google8protobuf2io17CodedOutputStream12VarintSize32Ej(i32 noundef %5)
  %7 = add i64 %3, %6
  ret i64 %7
}

; Function Attrs: mustprogress nounwind uwtable
define available_externally noundef i64 @_ZNKSt7__cxx1112basic_stringIcSt11char_traitsIcESaIcEE4sizeEv(ptr noundef nonnull align 8 dereferenceable(32) %0) #7 align 2 {
  %2 = alloca ptr, align 8
  store ptr %0, ptr %2, align 8, !tbaa !26
  %3 = load ptr, ptr %2, align 8
  %4 = getelementptr inbounds nuw %"class.std::__cxx11::basic_string", ptr %3, i32 0, i32 1
  %5 = load i64, ptr %4, align 8, !tbaa !74
  ret i64 %5
}

; Function Attrs: alwaysinline mustprogress uwtable
define linkonce_odr hidden noundef nonnull align 8 dereferenceable(32) ptr @_ZNK6google8protobuf8internal14ArenaStringPtr3GetB5cxx11Ev(ptr noundef nonnull align 8 dereferenceable(8) %0) #8 comdat align 2 {
  %2 = alloca ptr, align 8
  store ptr %0, ptr %2, align 8, !tbaa !24
  %3 = load ptr, ptr %2, align 8
  %4 = getelementptr inbounds nuw %"struct.google::protobuf::internal::ArenaStringPtr", ptr %3, i32 0, i32 0
  %5 = call noundef ptr @_ZNK6google8protobuf8internal9TaggedPtrINSt7__cxx1112basic_stringIcSt11char_traitsIcESaIcEEEE3GetEv(ptr noundef nonnull align 8 dereferenceable(8) %4)
  ret ptr %5
}

; Function Attrs: inlinehint mustprogress nounwind uwtable
define linkonce_odr hidden noundef zeroext i1 @_ZNK17opencv_tensorflow13OpDef_AttrDef21_internal_has_minimumEv(ptr noundef nonnull align 8 dereferenceable(72) %0) #6 comdat align 2 {
  %2 = alloca ptr, align 8
  store ptr %0, ptr %2, align 8, !tbaa !81
  %3 = load ptr, ptr %2, align 8
  %4 = getelementptr inbounds nuw %"class.opencv_tensorflow::OpDef_AttrDef", ptr %3, i32 0, i32 7
  %5 = load i8, ptr %4, align 8, !tbaa !89, !range !12, !noundef !13
  %6 = trunc i8 %5 to i1
  ret i1 %6
}

; Function Attrs: inlinehint mustprogress uwtable
define linkonce_odr hidden noundef i64 @_ZN6google8protobuf8internal14WireFormatLite16Int64SizePlusOneEl(i64 noundef %0) #5 comdat align 2 {
  %2 = alloca i64, align 8
  store i64 %0, ptr %2, align 8, !tbaa !38
  %3 = load i64, ptr %2, align 8, !tbaa !38
  %4 = call noundef i64 @_ZN6google8protobuf2io17CodedOutputStream19VarintSize64PlusOneEm(i64 noundef %3)
  ret i64 %4
}

; Function Attrs: inlinehint mustprogress nounwind uwtable
define linkonce_odr hidden noundef i64 @_ZNK17opencv_tensorflow13OpDef_AttrDef17_internal_minimumEv(ptr noundef nonnull align 8 dereferenceable(72) %0) #6 comdat align 2 {
  %2 = alloca ptr, align 8
  store ptr %0, ptr %2, align 8, !tbaa !81
  %3 = load ptr, ptr %2, align 8
  %4 = getelementptr inbounds nuw %"class.opencv_tensorflow::OpDef_AttrDef", ptr %3, i32 0, i32 6
  %5 = load i64, ptr %4, align 8, !tbaa !90
  ret i64 %5
}

; Function Attrs: inlinehint mustprogress nounwind uwtable
define linkonce_odr hidden noundef zeroext i1 @_ZNK17opencv_tensorflow13OpDef_AttrDef28_internal_has_allowed_valuesEv(ptr noundef nonnull align 8 dereferenceable(72) %0) #6 comdat align 2 {
  %2 = alloca ptr, align 8
  store ptr %0, ptr %2, align 8, !tbaa !81
  %3 = load ptr, ptr %2, align 8
  %4 = call noundef ptr @_ZN17opencv_tensorflow13OpDef_AttrDef25internal_default_instanceEv()
  %5 = icmp ne ptr %3, %4
  br i1 %5, label %6, label %10

6:                                                ; preds = %1
  %7 = getelementptr inbounds nuw %"class.opencv_tensorflow::OpDef_AttrDef", ptr %3, i32 0, i32 5
  %8 = load ptr, ptr %7, align 8, !tbaa !86
  %9 = icmp ne ptr %8, null
  br label %10

10:                                               ; preds = %6, %1
  %11 = phi i1 [ false, %1 ], [ %9, %6 ]
  ret i1 %11
}

; Function Attrs: inlinehint mustprogress uwtable
define linkonce_odr hidden noundef i64 @_ZN6google8protobuf8internal14WireFormatLite11MessageSizeIN17opencv_tensorflow9AttrValueEEEmRKT_(ptr noundef nonnull align 8 dereferenceable(32) %0) #5 comdat align 2 {
  %2 = alloca ptr, align 8
  store ptr %0, ptr %2, align 8, !tbaa !91
  %3 = load ptr, ptr %2, align 8, !tbaa !91
  %4 = call noundef i64 @_ZNK17opencv_tensorflow9AttrValue12ByteSizeLongEv(ptr noundef nonnull align 8 dereferenceable(32) %3)
  %5 = call noundef i64 @_ZN6google8protobuf8internal14WireFormatLite19LengthDelimitedSizeEm(i64 noundef %4)
  ret i64 %5
}

; Function Attrs: inlinehint mustprogress uwtable
define linkonce_odr hidden noundef zeroext i1 @_ZNK17opencv_tensorflow13OpDef_AttrDef27_internal_has_default_valueEv(ptr noundef nonnull align 8 dereferenceable(72) %0) #5 comdat align 2 {
  %2 = alloca ptr, align 8
  store ptr %0, ptr %2, align 8, !tbaa !81
  %3 = load ptr, ptr %2, align 8
  %4 = call noundef ptr @_ZN17opencv_tensorflow13OpDef_AttrDef25internal_default_instanceEv()
  %5 = icmp ne ptr %3, %4
  br i1 %5, label %6, label %10

6:                                                ; preds = %1
  %7 = getelementptr inbounds nuw %"class.opencv_tensorflow::OpDef_AttrDef", ptr %3, i32 0, i32 4
  %8 = load ptr, ptr %7, align 8, !tbaa !83
  %9 = icmp ne ptr %8, null
  br label %10

10:                                               ; preds = %6, %1
  %11 = phi i1 [ false, %1 ], [ %9, %6 ]
  ret i1 %11
}

; Function Attrs: inlinehint mustprogress uwtable
define linkonce_odr hidden noundef nonnull align 8 dereferenceable(32) ptr @_ZNK17opencv_tensorflow13OpDef_AttrDef21_internal_descriptionB5cxx11Ev(ptr noundef nonnull align 8 dereferenceable(72) %0) #5 comdat align 2 {
  %2 = alloca ptr, align 8
  store ptr %0, ptr %2, align 8, !tbaa !81
  %3 = load ptr, ptr %2, align 8
  %4 = getelementptr inbounds nuw %"class.opencv_tensorflow::OpDef_AttrDef", ptr %3, i32 0, i32 3
  %5 = call noundef nonnull align 8 dereferenceable(32) ptr @_ZNK6google8protobuf8internal14ArenaStringPtr3GetB5cxx11Ev(ptr noundef nonnull align 8 dereferenceable(8) %4)
  ret ptr %5
}

; Function Attrs: inlinehint mustprogress uwtable
define linkonce_odr hidden noundef nonnull align 8 dereferenceable(32) ptr @_ZNK17opencv_tensorflow13OpDef_AttrDef14_internal_typeB5cxx11Ev(ptr noundef nonnull align 8 dereferenceable(72) %0) #5 comdat align 2 {
  %2 = alloca ptr, align 8
  store ptr %0, ptr %2, align 8, !tbaa !81
  %3 = load ptr, ptr %2, align 8
  %4 = getelementptr inbounds nuw %"class.opencv_tensorflow::OpDef_AttrDef", ptr %3, i32 0, i32 2
  %5 = call noundef nonnull align 8 dereferenceable(32) ptr @_ZNK6google8protobuf8internal14ArenaStringPtr3GetB5cxx11Ev(ptr noundef nonnull align 8 dereferenceable(8) %4)
  ret ptr %5
}

; Function Attrs: inlinehint mustprogress uwtable
define linkonce_odr hidden noundef i64 @_ZN6google8protobuf8internal14WireFormatLite10StringSizeERKNSt7__cxx1112basic_stringIcSt11char_traitsIcESaIcEEE(ptr noundef nonnull align 8 dereferenceable(32) %0) #5 comdat align 2 {
  %2 = alloca ptr, align 8
  store ptr %0, ptr %2, align 8, !tbaa !26
  %3 = load ptr, ptr %2, align 8, !tbaa !26
  %4 = call noundef i64 @_ZNKSt7__cxx1112basic_stringIcSt11char_traitsIcESaIcEE4sizeEv(ptr noundef nonnull align 8 dereferenceable(32) %3) #3
  %5 = call noundef i64 @_ZN6google8protobuf8internal14WireFormatLite19LengthDelimitedSizeEm(i64 noundef %4)
  ret i64 %5
}

; Function Attrs: mustprogress nounwind uwtable
define available_externally noundef zeroext i1 @_ZNKSt7__cxx1112basic_stringIcSt11char_traitsIcESaIcEE5emptyEv(ptr noundef nonnull align 8 dereferenceable(32) %0) #7 align 2 {
  %2 = alloca ptr, align 8
  store ptr %0, ptr %2, align 8, !tbaa !26
  %3 = load ptr, ptr %2, align 8
  %4 = call noundef i64 @_ZNKSt7__cxx1112basic_stringIcSt11char_traitsIcESaIcEE4sizeEv(ptr noundef nonnull align 8 dereferenceable(32) %3) #3
  %5 = icmp eq i64 %4, 0
  ret i1 %5
}

; Function Attrs: inlinehint mustprogress uwtable
define linkonce_odr hidden noundef nonnull align 8 dereferenceable(32) ptr @_ZNK17opencv_tensorflow13OpDef_AttrDef14_internal_nameB5cxx11Ev(ptr noundef nonnull align 8 dereferenceable(72) %0) #5 comdat align 2 {
  %2 = alloca ptr, align 8
  store ptr %0, ptr %2, align 8, !tbaa !81
  %3 = load ptr, ptr %2, align 8
  %4 = getelementptr inbounds nuw %"class.opencv_tensorflow::OpDef_AttrDef", ptr %3, i32 0, i32 1
  %5 = call noundef nonnull align 8 dereferenceable(32) ptr @_ZNK6google8protobuf8internal14ArenaStringPtr3GetB5cxx11Ev(ptr noundef nonnull align 8 dereferenceable(8) %4)
  ret ptr %5
}

; Function Attrs: mustprogress uwtable
define hidden noundef i64 @_ZNK17opencv_tensorflow13OpDef_AttrDef12ByteSizeLongEv(ptr noundef nonnull align 8 dereferenceable(72) %0) unnamed_addr #4 align 2 {
  %2 = alloca ptr, align 8
  %3 = alloca i64, align 8
  %4 = alloca i32, align 4
  store ptr %0, ptr %2, align 8, !tbaa !81
  %5 = load ptr, ptr %2, align 8
  call void @llvm.lifetime.start.p0(i64 8, ptr %3) #3
  store i64 0, ptr %3, align 8, !tbaa !38
  call void @llvm.lifetime.start.p0(i64 4, ptr %4) #3
  store i32 0, ptr %4, align 4, !tbaa !31
  %6 = call noundef nonnull align 8 dereferenceable(32) ptr @_ZNK17opencv_tensorflow13OpDef_AttrDef14_internal_nameB5cxx11Ev(ptr noundef nonnull align 8 dereferenceable(72) %5)
  %7 = call noundef zeroext i1 @_ZNKSt7__cxx1112basic_stringIcSt11char_traitsIcESaIcEE5emptyEv(ptr noundef nonnull align 8 dereferenceable(32) %6) #3
  br i1 %7, label %14, label %8

8:                                                ; preds = %1
  %9 = call noundef nonnull align 8 dereferenceable(32) ptr @_ZNK17opencv_tensorflow13OpDef_AttrDef14_internal_nameB5cxx11Ev(ptr noundef nonnull align 8 dereferenceable(72) %5)
  %10 = call noundef i64 @_ZN6google8protobuf8internal14WireFormatLite10StringSizeERKNSt7__cxx1112basic_stringIcSt11char_traitsIcESaIcEEE(ptr noundef nonnull align 8 dereferenceable(32) %9)
  %11 = add i64 1, %10
  %12 = load i64, ptr %3, align 8, !tbaa !38
  %13 = add i64 %12, %11
  store i64 %13, ptr %3, align 8, !tbaa !38
  br label %14

14:                                               ; preds = %8, %1
  %15 = call noundef nonnull align 8 dereferenceable(32) ptr @_ZNK17opencv_tensorflow13OpDef_AttrDef14_internal_typeB5cxx11Ev(ptr noundef nonnull align 8 dereferenceable(72) %5)
  %16 = call noundef zeroext i1 @_ZNKSt7__cxx1112basic_stringIcSt11char_traitsIcESaIcEE5emptyEv(ptr noundef nonnull align 8 dereferenceable(32) %15) #3
  br i1 %16, label %23, label %17

17:                                               ; preds = %14
  %18 = call noundef nonnull align 8 dereferenceable(32) ptr @_ZNK17opencv_tensorflow13OpDef_AttrDef14_internal_typeB5cxx11Ev(ptr noundef nonnull align 8 dereferenceable(72) %5)
  %19 = call noundef i64 @_ZN6google8protobuf8internal14WireFormatLite10StringSizeERKNSt7__cxx1112basic_stringIcSt11char_traitsIcESaIcEEE(ptr noundef nonnull align 8 dereferenceable(32) %18)
  %20 = add i64 1, %19
  %21 = load i64, ptr %3, align 8, !tbaa !38
  %22 = add i64 %21, %20
  store i64 %22, ptr %3, align 8, !tbaa !38
  br label %23

23:                                               ; preds = %17, %14
  %24 = call noundef nonnull align 8 dereferenceable(32) ptr @_ZNK17opencv_tensorflow13OpDef_AttrDef21_internal_descriptionB5cxx11Ev(ptr noundef nonnull align 8 dereferenceable(72) %5)
  %25 = call noundef zeroext i1 @_ZNKSt7__cxx1112basic_stringIcSt11char_traitsIcESaIcEE5emptyEv(ptr noundef nonnull align 8 dereferenceable(32) %24) #3
  br i1 %25, label %32, label %26

26:                                               ; preds = %23
  %27 = call noundef nonnull align 8 dereferenceable(32) ptr @_ZNK17opencv_tensorflow13OpDef_AttrDef21_internal_descriptionB5cxx11Ev(ptr noundef nonnull align 8 dereferenceable(72) %5)
  %28 = call noundef i64 @_ZN6google8protobuf8internal14WireFormatLite10StringSizeERKNSt7__cxx1112basic_stringIcSt11char_traitsIcESaIcEEE(ptr noundef nonnull align 8 dereferenceable(32) %27)
  %29 = add i64 1, %28
  %30 = load i64, ptr %3, align 8, !tbaa !38
  %31 = add i64 %30, %29
  store i64 %31, ptr %3, align 8, !tbaa !38
  br label %32

32:                                               ; preds = %26, %23
  %33 = call noundef zeroext i1 @_ZNK17opencv_tensorflow13OpDef_AttrDef27_internal_has_default_valueEv(ptr noundef nonnull align 8 dereferenceable(72) %5)
  br i1 %33, label %34, label %41

34:                                               ; preds = %32
  %35 = getelementptr inbounds nuw %"class.opencv_tensorflow::OpDef_AttrDef", ptr %5, i32 0, i32 4
  %36 = load ptr, ptr %35, align 8, !tbaa !83
  %37 = call noundef i64 @_ZN6google8protobuf8internal14WireFormatLite11MessageSizeIN17opencv_tensorflow9AttrValueEEEmRKT_(ptr noundef nonnull align 8 dereferenceable(32) %36)
  %38 = add i64 1, %37
  %39 = load i64, ptr %3, align 8, !tbaa !38
  %40 = add i64 %39, %38
  store i64 %40, ptr %3, align 8, !tbaa !38
  br label %41

41:                                               ; preds = %34, %32
  %42 = call noundef zeroext i1 @_ZNK17opencv_tensorflow13OpDef_AttrDef28_internal_has_allowed_valuesEv(ptr noundef nonnull align 8 dereferenceable(72) %5)
  br i1 %42, label %43, label %50

43:                                               ; preds = %41
  %44 = getelementptr inbounds nuw %"class.opencv_tensorflow::OpDef_AttrDef", ptr %5, i32 0, i32 5
  %45 = load ptr, ptr %44, align 8, !tbaa !86
  %46 = call noundef i64 @_ZN6google8protobuf8internal14WireFormatLite11MessageSizeIN17opencv_tensorflow9AttrValueEEEmRKT_(ptr noundef nonnull align 8 dereferenceable(32) %45)
  %47 = add i64 1, %46
  %48 = load i64, ptr %3, align 8, !tbaa !38
  %49 = add i64 %48, %47
  store i64 %49, ptr %3, align 8, !tbaa !38
  br label %50

50:                                               ; preds = %43, %41
  %51 = call noundef i64 @_ZNK17opencv_tensorflow13OpDef_AttrDef17_internal_minimumEv(ptr noundef nonnull align 8 dereferenceable(72) %5)
  %52 = icmp ne i64 %51, 0
  br i1 %52, label %53, label %58

53:                                               ; preds = %50
  %54 = call noundef i64 @_ZNK17opencv_tensorflow13OpDef_AttrDef17_internal_minimumEv(ptr noundef nonnull align 8 dereferenceable(72) %5)
  %55 = call noundef i64 @_ZN6google8protobuf8internal14WireFormatLite16Int64SizePlusOneEl(i64 noundef %54)
  %56 = load i64, ptr %3, align 8, !tbaa !38
  %57 = add i64 %56, %55
  store i64 %57, ptr %3, align 8, !tbaa !38
  br label %58

58:                                               ; preds = %53, %50
  %59 = call noundef zeroext i1 @_ZNK17opencv_tensorflow13OpDef_AttrDef21_internal_has_minimumEv(ptr noundef nonnull align 8 dereferenceable(72) %5)
  %60 = zext i1 %59 to i32
  %61 = icmp ne i32 %60, 0
  br i1 %61, label %62, label %65

62:                                               ; preds = %58
  %63 = load i64, ptr %3, align 8, !tbaa !38
  %64 = add i64 %63, 2
  store i64 %64, ptr %3, align 8, !tbaa !38
  br label %65

65:                                               ; preds = %62, %58
  %66 = load i64, ptr %3, align 8, !tbaa !38
  %67 = getelementptr inbounds nuw %"class.opencv_tensorflow::OpDef_AttrDef", ptr %5, i32 0, i32 8
  %68 = call noundef i64 @_ZNK6google8protobuf7Message29MaybeComputeUnknownFieldsSizeEmPNS0_8internal10CachedSizeE(ptr noundef nonnull align 8 dereferenceable(16) %5, i64 noundef %66, ptr noundef %67)
  call void @llvm.lifetime.end.p0(i64 4, ptr %4) #3
  call void @llvm.lifetime.end.p0(i64 8, ptr %3) #3
  ret i64 %68
}