; Function Attrs: mustprogress uwtable
define hidden noundef i64 @_ZNK17opencv_tensorflow13OpDef_AttrDef12ByteSizeLongEv(ptr noundef nonnull align 8 dereferenceable(72) %0) unnamed_addr #3 align 2 {
  %2 = getelementptr inbounds nuw i8, ptr %0, i64 16
  %3 = load ptr, ptr %2, align 8, !tbaa !13
  %4 = ptrtoint ptr %3 to i64
  %5 = and i64 %4, -2
  %6 = inttoptr i64 %5 to ptr
  %7 = getelementptr inbounds nuw i8, ptr %6, i64 8
  %8 = load i64, ptr %7, align 8, !tbaa !20
  %9 = icmp eq i64 %8, 0
  br i1 %9, label %21, label %10

10:                                               ; preds = %1
  %11 = trunc i64 %8 to i32
  %12 = or i32 %11, 1
  %13 = tail call range(i32 0, 33) i32 @llvm.ctlz.i32(i32 %12, i1 true)
  %14 = xor i32 %13, 31
  %15 = mul nuw nsw i32 %14, 9
  %16 = add nuw nsw i32 %15, 73
  %17 = lshr i32 %16, 6
  %18 = zext nneg i32 %17 to i64
  %19 = add i64 %8, 1
  %20 = add i64 %19, %18
  br label %21

21:                                               ; preds = %10, %1
  %.0 = phi i64 [ 0, %1 ], [ %20, %10 ]
  %22 = getelementptr inbounds nuw i8, ptr %0, i64 24
  %23 = load ptr, ptr %22, align 8, !tbaa !13
  %24 = ptrtoint ptr %23 to i64
  %25 = and i64 %24, -2
  %26 = inttoptr i64 %25 to ptr
  %27 = getelementptr inbounds nuw i8, ptr %26, i64 8
  %28 = load i64, ptr %27, align 8, !tbaa !20
  %29 = icmp eq i64 %28, 0
  br i1 %29, label %42, label %30

30:                                               ; preds = %21
  %31 = trunc i64 %28 to i32
  %32 = or i32 %31, 1
  %33 = tail call range(i32 0, 33) i32 @llvm.ctlz.i32(i32 %32, i1 true)
  %34 = xor i32 %33, 31
  %35 = mul nuw nsw i32 %34, 9
  %36 = add nuw nsw i32 %35, 73
  %37 = lshr i32 %36, 6
  %38 = zext nneg i32 %37 to i64
  %39 = add i64 %.0, 1
  %40 = add i64 %39, %28
  %41 = add i64 %40, %38
  br label %42

42:                                               ; preds = %30, %21
  %.1 = phi i64 [ %.0, %21 ], [ %41, %30 ]
  %43 = getelementptr inbounds nuw i8, ptr %0, i64 32
  %44 = load ptr, ptr %43, align 8, !tbaa !13
  %45 = ptrtoint ptr %44 to i64
  %46 = and i64 %45, -2
  %47 = inttoptr i64 %46 to ptr
  %48 = getelementptr inbounds nuw i8, ptr %47, i64 8
  %49 = load i64, ptr %48, align 8, !tbaa !20
  %50 = icmp eq i64 %49, 0
  br i1 %50, label %63, label %51

51:                                               ; preds = %42
  %52 = trunc i64 %49 to i32
  %53 = or i32 %52, 1
  %54 = tail call range(i32 0, 33) i32 @llvm.ctlz.i32(i32 %53, i1 true)
  %55 = xor i32 %54, 31
  %56 = mul nuw nsw i32 %55, 9
  %57 = add nuw nsw i32 %56, 73
  %58 = lshr i32 %57, 6
  %59 = zext nneg i32 %58 to i64
  %60 = add i64 %.1, 1
  %61 = add i64 %60, %49
  %62 = add i64 %61, %59
  br label %63

63:                                               ; preds = %51, %42
  %.2 = phi i64 [ %.1, %42 ], [ %62, %51 ]
  %.not.i = icmp ne ptr %0, @_ZN17opencv_tensorflow32_OpDef_AttrDef_default_instance_E
  %64 = getelementptr inbounds nuw i8, ptr %0, i64 40
  %65 = load ptr, ptr %64, align 8
  %66 = icmp ne ptr %65, null
  %67 = select i1 %.not.i, i1 %66, i1 false
  br i1 %67, label %68, label %81

68:                                               ; preds = %63
  %69 = tail call noundef i64 @_ZNK17opencv_tensorflow9AttrValue12ByteSizeLongEv(ptr noundef nonnull align 8 dereferenceable(32) %65)
  %70 = trunc i64 %69 to i32
  %71 = or i32 %70, 1
  %72 = tail call range(i32 0, 33) i32 @llvm.ctlz.i32(i32 %71, i1 true)
  %73 = xor i32 %72, 31
  %74 = mul nuw nsw i32 %73, 9
  %75 = add nuw nsw i32 %74, 73
  %76 = lshr i32 %75, 6
  %77 = zext nneg i32 %76 to i64
  %78 = add i64 %.2, 1
  %79 = add i64 %78, %69
  %80 = add i64 %79, %77
  br label %81

81:                                               ; preds = %68, %63
  %.3 = phi i64 [ %80, %68 ], [ %.2, %63 ]
  %82 = getelementptr inbounds nuw i8, ptr %0, i64 48
  %83 = load ptr, ptr %82, align 8
  %84 = icmp ne ptr %83, null
  %85 = select i1 %.not.i, i1 %84, i1 false
  br i1 %85, label %86, label %99

86:                                               ; preds = %81
  %87 = tail call noundef i64 @_ZNK17opencv_tensorflow9AttrValue12ByteSizeLongEv(ptr noundef nonnull align 8 dereferenceable(32) %83)
  %88 = trunc i64 %87 to i32
  %89 = or i32 %88, 1
  %90 = tail call range(i32 0, 33) i32 @llvm.ctlz.i32(i32 %89, i1 true)
  %91 = xor i32 %90, 31
  %92 = mul nuw nsw i32 %91, 9
  %93 = add nuw nsw i32 %92, 73
  %94 = lshr i32 %93, 6
  %95 = zext nneg i32 %94 to i64
  %96 = add i64 %.3, 1
  %97 = add i64 %96, %87
  %98 = add i64 %97, %95
  br label %99

99:                                               ; preds = %86, %81
  %.4 = phi i64 [ %98, %86 ], [ %.3, %81 ]
  %100 = getelementptr inbounds nuw i8, ptr %0, i64 56
  %101 = load i64, ptr %100, align 8, !tbaa !62
  %.not = icmp eq i64 %101, 0
  br i1 %.not, label %110, label %102

102:                                              ; preds = %99
  %103 = or i64 %101, 1
  %104 = tail call range(i64 0, 65) i64 @llvm.ctlz.i64(i64 %103, i1 true)
  %105 = xor i64 %104, 63
  %106 = mul nuw nsw i64 %105, 9
  %107 = add nuw nsw i64 %106, 137
  %108 = lshr i64 %107, 6
  %109 = add i64 %108, %.4
  br label %110

110:                                              ; preds = %102, %99
  %.5 = phi i64 [ %109, %102 ], [ %.4, %99 ]
  %111 = getelementptr inbounds nuw i8, ptr %0, i64 64
  %112 = load i8, ptr %111, align 8, !tbaa !61, !range !53, !noundef !54
  %113 = shl nuw nsw i8 %112, 1
  %114 = zext nneg i8 %113 to i64
  %spec.select = add i64 %.5, %114
  %115 = getelementptr inbounds nuw i8, ptr %0, i64 68
  %116 = tail call noundef i64 @_ZNK6google8protobuf7Message29MaybeComputeUnknownFieldsSizeEmPNS0_8internal10CachedSizeE(ptr noundef nonnull align 8 dereferenceable(16) %0, i64 noundef %spec.select, ptr noundef nonnull %115)
  ret i64 %116
}